; ModuleID = '38/1594.c'
source_filename = "38/1594.c"
target datalayout = "e-m:e-p270:32:32-p271:32:32-p272:64:64-i64:64-f80:128-n8:16:32:64-S128"
target triple = "x86_64-pc-linux-gnu"

@.str = private unnamed_addr constant [3 x i8] c"%d\00", align 1
@.str.1 = private unnamed_addr constant [4 x i8] c"%lf\00", align 1
@.str.2 = private unnamed_addr constant [7 x i8] c"%.5lf\0A\00", align 1

; Function Attrs: noinline nounwind uwtable
define dso_local i32 @main() #0 {
  %1 = alloca i32, align 4
  %2 = alloca i32, align 4
  %3 = alloca i32, align 4
  %4 = alloca i32, align 4
  %5 = alloca [100 x double], align 16
  %6 = alloca double, align 8
  %7 = alloca double, align 8
  %8 = alloca double, align 8
  %9 = alloca double, align 8
  %10 = alloca double, align 8
  store i32 0, i32* %1, align 4
  store double 0.000000e+00, double* %7, align 8
  %11 = call i32 (i8*, ...) @__isoc99_scanf(i8* getelementptr inbounds ([3 x i8], [3 x i8]* @.str, i64 0, i64 0), i32* %2)
  store i32 0, i32* %3, align 4
  br label %12

12:                                               ; preds = %66, %0
  %13 = load i32, i32* %3, align 4
  %14 = load i32, i32* %2, align 4
  %15 = icmp slt i32 %13, %14
  br i1 %15, label %16, label %69

16:                                               ; preds = %12
  store double 0.000000e+00, double* %7, align 8
  store double 0.000000e+00, double* %8, align 8
  store double 0.000000e+00, double* %6, align 8
  store double 0.000000e+00, double* %10, align 8
  %17 = call i32 (i8*, ...) @__isoc99_scanf(i8* getelementptr inbounds ([4 x i8], [4 x i8]* @.str.1, i64 0, i64 0), double* %9)
  store i32 0, i32* %4, align 4
  br label %18

18:                                               ; preds = %36, %16
  %19 = load i32, i32* %4, align 4
  %20 = sitofp i32 %19 to double
  %21 = load double, double* %9, align 8
  %22 = fcmp olt double %20, %21
  br i1 %22, label %23, label %39

23:                                               ; preds = %18
  %24 = load i32, i32* %4, align 4
  %25 = sext i32 %24 to i64
  %26 = getelementptr inbounds [100 x double], [100 x double]* %5, i64 0, i64 %25
  %27 = call i32 (i8*, ...) @__isoc99_scanf(i8* getelementptr inbounds ([4 x i8], [4 x i8]* @.str.1, i64 0, i64 0), double* %26)
  %28 = load i32, i32* %4, align 4
  %29 = sext i32 %28 to i64
  %30 = getelementptr inbounds [100 x double], [100 x double]* %5, i64 0, i64 %29
  %31 = load double, double* %30, align 8
  %32 = load double, double* %9, align 8
  %33 = fdiv double %31, %32
  %34 = load double, double* %7, align 8
  %35 = fadd double %34, %33
  store double %35, double* %7, align 8
  br label %36

36:                                               ; preds = %23
  %37 = load i32, i32* %4, align 4
  %38 = add nsw i32 %37, 1
  store i32 %38, i32* %4, align 4
  br label %18

39:                                               ; preds = %18
  store i32 0, i32* %4, align 4
  br label %40

40:                                               ; preds = %58, %39
  %41 = load i32, i32* %4, align 4
  %42 = sitofp i32 %41 to double
  %43 = load double, double* %9, align 8
  %44 = fcmp olt double %42, %43
  br i1 %44, label %45, label %61

45:                                               ; preds = %40
  %46 = load i32, i32* %4, align 4
  %47 = sext i32 %46 to i64
  %48 = getelementptr inbounds [100 x double], [100 x double]* %5, i64 0, i64 %47
  %49 = load double, double* %48, align 8
  %50 = load double, double* %7, align 8
  %51 = fsub double %49, %50
  %52 = call double @pow(double %51, double 2.000000e+00) #3
  %53 = load double, double* %6, align 8
  %54 = fadd double %53, %52
  store double %54, double* %6, align 8
  %55 = load double, double* %6, align 8
  %56 = load double, double* %9, align 8
  %57 = fdiv double %55, %56
  store double %57, double* %8, align 8
  br label %58

58:                                               ; preds = %45
  %59 = load i32, i32* %4, align 4
  %60 = add nsw i32 %59, 1
  store i32 %60, i32* %4, align 4
  br label %40

61:                                               ; preds = %40
  %62 = load double, double* %8, align 8
  %63 = call double @sqrt(double %62) #3
  store double %63, double* %10, align 8
  %64 = load double, double* %10, align 8
  %65 = call i32 (i8*, ...) @printf(i8* getelementptr inbounds ([7 x i8], [7 x i8]* @.str.2, i64 0, i64 0), double %64)
  br label %66

66:                                               ; preds = %61
  %67 = load i32, i32* %3, align 4
  %68 = add nsw i32 %67, 1
  store i32 %68, i32* %3, align 4
  br label %12

69:                                               ; preds = %12
  ret i32 0
}

declare dso_local i32 @__isoc99_scanf(i8*, ...) #1

; Function Attrs: nounwind
declare dso_local double @pow(double, double) #2

; Function Attrs: nounwind
declare dso_local double @sqrt(double) #2

declare dso_local i32 @printf(i8*, ...) #1


!llvm.module.flags = !{!0}
!llvm.ident = !{!1}

!0 = !{i32 1, !"wchar_size", i32 4}
!1 = !{!"clang version 10.0.0-4ubuntu1 "}
