; ModuleID = 'source-C-CXX/37/1594.c'
source_filename = "source-C-CXX/37/1594.c"
target datalayout = "e-m:e-p270:32:32-p271:32:32-p272:64:64-i64:64-f80:128-n8:16:32:64-S128"
target triple = "x86_64-pc-linux-gnu"

@.str = private unnamed_addr constant [3 x i8] c"%d\00", align 1
@.str.1 = private unnamed_addr constant [4 x i8] c"%lf\00", align 1
@.str.2 = private unnamed_addr constant [7 x i8] c"%.5lf\0A\00", align 1

; Function Attrs: nofree nounwind sspstrong uwtable
define dso_local i32 @main() local_unnamed_addr #0 {
  %1 = alloca i32, align 4
  %2 = alloca [100 x double], align 16
  %3 = alloca double, align 8
  %4 = bitcast i32* %1 to i8*
  call void @llvm.lifetime.start.p0i8(i64 4, i8* nonnull %4) #4
  %5 = bitcast [100 x double]* %2 to i8*
  call void @llvm.lifetime.start.p0i8(i64 800, i8* nonnull %5) #4
  %6 = bitcast double* %3 to i8*
  call void @llvm.lifetime.start.p0i8(i64 8, i8* nonnull %6) #4
  %7 = call i32 (i8*, ...) @__isoc99_scanf(i8* getelementptr inbounds ([3 x i8], [3 x i8]* @.str, i64 0, i64 0), i32* nonnull %1)
  %8 = load i32, i32* %1, align 4, !tbaa !5
  %9 = icmp sgt i32 %8, 0
  br i1 %9, label %10, label %53

10:                                               ; preds = %0, %46
  %11 = phi i32 [ %50, %46 ], [ 0, %0 ]
  %12 = call i32 (i8*, ...) @__isoc99_scanf(i8* getelementptr inbounds ([4 x i8], [4 x i8]* @.str.1, i64 0, i64 0), double* nonnull %3)
  %13 = load double, double* %3, align 8, !tbaa !9
  %14 = fcmp ogt double %13, 0.000000e+00
  br i1 %14, label %19, label %15

15:                                               ; preds = %19, %10
  %16 = phi double [ 0.000000e+00, %10 ], [ %27, %19 ]
  %17 = phi double [ %13, %10 ], [ %25, %19 ]
  %18 = fcmp ogt double %17, 0.000000e+00
  br i1 %18, label %32, label %46

19:                                               ; preds = %10, %19
  %20 = phi i64 [ %28, %19 ], [ 0, %10 ]
  %21 = phi double [ %27, %19 ], [ 0.000000e+00, %10 ]
  %22 = getelementptr inbounds [100 x double], [100 x double]* %2, i64 0, i64 %20
  %23 = call i32 (i8*, ...) @__isoc99_scanf(i8* getelementptr inbounds ([4 x i8], [4 x i8]* @.str.1, i64 0, i64 0), double* nonnull %22)
  %24 = load double, double* %22, align 8, !tbaa !9
  %25 = load double, double* %3, align 8, !tbaa !9
  %26 = fdiv double %24, %25
  %27 = fadd double %21, %26
  %28 = add nuw i64 %20, 1
  %29 = trunc i64 %28 to i32
  %30 = sitofp i32 %29 to double
  %31 = fcmp ogt double %25, %30
  br i1 %31, label %19, label %15, !llvm.loop !11

32:                                               ; preds = %15, %32
  %33 = phi i64 [ %40, %32 ], [ 0, %15 ]
  %34 = phi double [ %39, %32 ], [ 0.000000e+00, %15 ]
  %35 = getelementptr inbounds [100 x double], [100 x double]* %2, i64 0, i64 %33
  %36 = load double, double* %35, align 8, !tbaa !9
  %37 = fsub double %36, %16
  %38 = fmul double %37, %37
  %39 = fadd double %34, %38
  %40 = add nuw i64 %33, 1
  %41 = trunc i64 %40 to i32
  %42 = sitofp i32 %41 to double
  %43 = fcmp ogt double %17, %42
  br i1 %43, label %32, label %44, !llvm.loop !13

44:                                               ; preds = %32
  %45 = fdiv double %39, %17
  br label %46

46:                                               ; preds = %44, %15
  %47 = phi double [ %45, %44 ], [ 0.000000e+00, %15 ]
  %48 = call double @sqrt(double %47) #4
  %49 = call i32 (i8*, ...) @printf(i8* nonnull dereferenceable(1) getelementptr inbounds ([7 x i8], [7 x i8]* @.str.2, i64 0, i64 0), double %48)
  %50 = add nuw nsw i32 %11, 1
  %51 = load i32, i32* %1, align 4, !tbaa !5
  %52 = icmp slt i32 %50, %51
  br i1 %52, label %10, label %53, !llvm.loop !14

53:                                               ; preds = %46, %0
  call void @llvm.lifetime.end.p0i8(i64 8, i8* nonnull %6) #4
  call void @llvm.lifetime.end.p0i8(i64 800, i8* nonnull %5) #4
  call void @llvm.lifetime.end.p0i8(i64 4, i8* nonnull %4) #4
  ret i32 0
}

; Function Attrs: argmemonly mustprogress nofree nosync nounwind willreturn
declare void @llvm.lifetime.start.p0i8(i64 immarg, i8* nocapture) #1

; Function Attrs: nofree nounwind
declare noundef i32 @__isoc99_scanf(i8* nocapture noundef readonly, ...) local_unnamed_addr #2

; Function Attrs: mustprogress nofree nounwind willreturn
declare double @sqrt(double) local_unnamed_addr #3

; Function Attrs: nofree nounwind
declare noundef i32 @printf(i8* nocapture noundef readonly, ...) local_unnamed_addr #2

; Function Attrs: argmemonly mustprogress nofree nosync nounwind willreturn
declare void @llvm.lifetime.end.p0i8(i64 immarg, i8* nocapture) #1


!llvm.module.flags = !{!0, !1, !2, !3}
!llvm.ident = !{!4}

!0 = !{i32 1, !"wchar_size", i32 4}
!1 = !{i32 7, !"PIC Level", i32 2}
!2 = !{i32 7, !"PIE Level", i32 2}
!3 = !{i32 7, !"uwtable", i32 1}
!4 = !{!"clang version 13.0.0"}
!5 = !{!6, !6, i64 0}
!6 = !{!"int", !7, i64 0}
!7 = !{!"omnipotent char", !8, i64 0}
!8 = !{!"Simple C/C++ TBAA"}
!9 = !{!10, !10, i64 0}
!10 = !{!"double", !7, i64 0}
!11 = distinct !{!11, !12}
!12 = !{!"llvm.loop.mustprogress"}
!13 = distinct !{!13, !12}
!14 = distinct !{!14, !12}
